; ModuleID = '60/81.c'
source_filename = "60/81.c"
target datalayout = "e-m:e-p270:32:32-p271:32:32-p272:64:64-i64:64-f80:128-n8:16:32:64-S128"
target triple = "x86_64-pc-linux-gnu"

@.str = private unnamed_addr constant [3 x i8] c"%d\00", align 1
@.str.1 = private unnamed_addr constant [7 x i8] c"empty\0A\00", align 1
@.str.2 = private unnamed_addr constant [7 x i8] c"%d %d\0A\00", align 1

; Function Attrs: noinline nounwind uwtable
define dso_local void @main() #0 {
  %1 = alloca i32, align 4
  %2 = alloca i32, align 4
  %3 = alloca i32, align 4
  %4 = alloca i32, align 4
  %5 = call i32 (i8*, ...) @__isoc99_scanf(i8* getelementptr inbounds ([3 x i8], [3 x i8]* @.str, i64 0, i64 0), i32* %1)
  %6 = load i32, i32* %1, align 4
  %7 = icmp slt i32 %6, 5
  br i1 %7, label %8, label %10

8:                                                ; preds = %0
  %9 = call i32 (i8*, ...) @printf(i8* getelementptr inbounds ([7 x i8], [7 x i8]* @.str.1, i64 0, i64 0))
  br label %10

10:                                               ; preds = %8, %0
  store i32 1, i32* %2, align 4
  br label %11

11:                                               ; preds = %83, %10
  %12 = load i32, i32* %2, align 4
  %13 = load i32, i32* %1, align 4
  %14 = icmp sle i32 %12, %13
  br i1 %14, label %15, label %86

15:                                               ; preds = %11
  %16 = load i32, i32* %2, align 4
  %17 = srem i32 %16, 2
  %18 = icmp eq i32 %17, 0
  br i1 %18, label %19, label %20

19:                                               ; preds = %15
  br label %83

20:                                               ; preds = %15
  store i32 2, i32* %3, align 4
  br label %21

21:                                               ; preds = %78, %20
  %22 = load i32, i32* %3, align 4
  %23 = load i32, i32* %2, align 4
  %24 = sdiv i32 %23, 2
  %25 = add nsw i32 %24, 1
  %26 = icmp sle i32 %22, %25
  br i1 %26, label %27, label %81

27:                                               ; preds = %21
  %28 = load i32, i32* %2, align 4
  %29 = load i32, i32* %3, align 4
  %30 = srem i32 %28, %29
  %31 = icmp eq i32 %30, 0
  br i1 %31, label %32, label %33

32:                                               ; preds = %27
  br label %81

33:                                               ; preds = %27
  %34 = load i32, i32* %3, align 4
  %35 = load i32, i32* %2, align 4
  %36 = sdiv i32 %35, 2
  %37 = add nsw i32 %36, 1
  %38 = icmp eq i32 %34, %37
  br i1 %38, label %39, label %76

39:                                               ; preds = %33
  %40 = load i32, i32* %2, align 4
  %41 = add nsw i32 %40, 2
  %42 = load i32, i32* %1, align 4
  %43 = icmp sle i32 %41, %42
  br i1 %43, label %44, label %75

44:                                               ; preds = %39
  store i32 2, i32* %4, align 4
  br label %45

45:                                               ; preds = %71, %44
  %46 = load i32, i32* %4, align 4
  %47 = load i32, i32* %2, align 4
  %48 = add nsw i32 %47, 2
  %49 = sdiv i32 %48, 2
  %50 = icmp sle i32 %46, %49
  br i1 %50, label %51, label %74

51:                                               ; preds = %45
  %52 = load i32, i32* %2, align 4
  %53 = add nsw i32 %52, 2
  %54 = load i32, i32* %4, align 4
  %55 = srem i32 %53, %54
  %56 = icmp eq i32 %55, 0
  br i1 %56, label %57, label %58

57:                                               ; preds = %51
  br label %74

58:                                               ; preds = %51
  %59 = load i32, i32* %4, align 4
  %60 = load i32, i32* %2, align 4
  %61 = add nsw i32 %60, 2
  %62 = sdiv i32 %61, 2
  %63 = icmp eq i32 %59, %62
  br i1 %63, label %64, label %69

64:                                               ; preds = %58
  %65 = load i32, i32* %2, align 4
  %66 = load i32, i32* %2, align 4
  %67 = add nsw i32 %66, 2
  %68 = call i32 (i8*, ...) @printf(i8* getelementptr inbounds ([7 x i8], [7 x i8]* @.str.2, i64 0, i64 0), i32 %65, i32 %67)
  br label %69

69:                                               ; preds = %64, %58
  br label %70

70:                                               ; preds = %69
  br label %71

71:                                               ; preds = %70
  %72 = load i32, i32* %4, align 4
  %73 = add nsw i32 %72, 1
  store i32 %73, i32* %4, align 4
  br label %45

74:                                               ; preds = %57, %45
  br label %75

75:                                               ; preds = %74, %39
  br label %76

76:                                               ; preds = %75, %33
  br label %77

77:                                               ; preds = %76
  br label %78

78:                                               ; preds = %77
  %79 = load i32, i32* %3, align 4
  %80 = add nsw i32 %79, 1
  store i32 %80, i32* %3, align 4
  br label %21

81:                                               ; preds = %32, %21
  br label %82

82:                                               ; preds = %81
  br label %83

83:                                               ; preds = %82, %19
  %84 = load i32, i32* %2, align 4
  %85 = add nsw i32 %84, 1
  store i32 %85, i32* %2, align 4
  br label %11

86:                                               ; preds = %11
  ret void
}

declare dso_local i32 @__isoc99_scanf(i8*, ...) #1

declare dso_local i32 @printf(i8*, ...) #1


!llvm.module.flags = !{!0}
!llvm.ident = !{!1}

!0 = !{i32 1, !"wchar_size", i32 4}
!1 = !{!"clang version 10.0.0-4ubuntu1 "}
